target datalayout = "e-m:e-p270:32:32-p271:32:32-p272:64:64-i64:64-i128:128-f80:128-n8:16:32:64-S128"
target triple = "x86_64-pc-linux-gnu"

%struct._ir_edge_info = type { i32, i32, float }

; Function Attrs: nounwind uwtable
define internal i32 @ir_edge_info_cmp(ptr noundef %0, ptr noundef %1) #0 {
  %3 = alloca i32, align 4
  %4 = alloca ptr, align 8
  %5 = alloca ptr, align 8
  %6 = alloca ptr, align 8
  %7 = alloca ptr, align 8
  %8 = alloca i32, align 4
  store ptr %0, ptr %4, align 8, !tbaa !106
  store ptr %1, ptr %5, align 8, !tbaa !106
  call void @llvm.lifetime.start.p0(i64 8, ptr %6) #12
  %9 = load ptr, ptr %4, align 8, !tbaa !106
  store ptr %9, ptr %6, align 8, !tbaa !86
  call void @llvm.lifetime.start.p0(i64 8, ptr %7) #12
  %10 = load ptr, ptr %5, align 8, !tbaa !106
  store ptr %10, ptr %7, align 8, !tbaa !86
  %11 = load ptr, ptr %6, align 8, !tbaa !86
  %12 = getelementptr inbounds nuw %struct._ir_edge_info, ptr %11, i32 0, i32 2
  %13 = load float, ptr %12, align 4, !tbaa !97
  %14 = load ptr, ptr %7, align 8, !tbaa !86
  %15 = getelementptr inbounds nuw %struct._ir_edge_info, ptr %14, i32 0, i32 2
  %16 = load float, ptr %15, align 4, !tbaa !97
  %17 = fcmp une float %13, %16
  br i1 %17, label %18, label %27

18:                                               ; preds = %2
  %19 = load ptr, ptr %6, align 8, !tbaa !86
  %20 = getelementptr inbounds nuw %struct._ir_edge_info, ptr %19, i32 0, i32 2
  %21 = load float, ptr %20, align 4, !tbaa !97
  %22 = load ptr, ptr %7, align 8, !tbaa !86
  %23 = getelementptr inbounds nuw %struct._ir_edge_info, ptr %22, i32 0, i32 2
  %24 = load float, ptr %23, align 4, !tbaa !97
  %25 = fcmp olt float %21, %24
  %26 = select i1 %25, i32 1, i32 -1
  store i32 %26, ptr %3, align 4
  store i32 1, ptr %8, align 4
  br label %51

27:                                               ; preds = %2
  %28 = load ptr, ptr %6, align 8, !tbaa !86
  %29 = getelementptr inbounds nuw %struct._ir_edge_info, ptr %28, i32 0, i32 0
  %30 = load i32, ptr %29, align 4, !tbaa !94
  %31 = load ptr, ptr %7, align 8, !tbaa !86
  %32 = getelementptr inbounds nuw %struct._ir_edge_info, ptr %31, i32 0, i32 0
  %33 = load i32, ptr %32, align 4, !tbaa !94
  %34 = icmp ne i32 %30, %33
  br i1 %34, label %35, label %43

35:                                               ; preds = %27
  %36 = load ptr, ptr %7, align 8, !tbaa !86
  %37 = getelementptr inbounds nuw %struct._ir_edge_info, ptr %36, i32 0, i32 0
  %38 = load i32, ptr %37, align 4, !tbaa !94
  %39 = load ptr, ptr %6, align 8, !tbaa !86
  %40 = getelementptr inbounds nuw %struct._ir_edge_info, ptr %39, i32 0, i32 0
  %41 = load i32, ptr %40, align 4, !tbaa !94
  %42 = sub i32 %38, %41
  store i32 %42, ptr %3, align 4
  store i32 1, ptr %8, align 4
  br label %51

43:                                               ; preds = %27
  %44 = load ptr, ptr %6, align 8, !tbaa !86
  %45 = getelementptr inbounds nuw %struct._ir_edge_info, ptr %44, i32 0, i32 1
  %46 = load i32, ptr %45, align 4, !tbaa !96
  %47 = load ptr, ptr %7, align 8, !tbaa !86
  %48 = getelementptr inbounds nuw %struct._ir_edge_info, ptr %47, i32 0, i32 1
  %49 = load i32, ptr %48, align 4, !tbaa !96
  %50 = sub i32 %46, %49
  store i32 %50, ptr %3, align 4
  store i32 1, ptr %8, align 4
  br label %51

51:                                               ; preds = %43, %35, %18
  call void @llvm.lifetime.end.p0(i64 8, ptr %7) #12
  call void @llvm.lifetime.end.p0(i64 8, ptr %6) #12
  %52 = load i32, ptr %3, align 4
  ret i32 %52
}