; Function Attrs: mustprogress nofree norecurse nosync nounwind willreturn memory(argmem: read) uwtable
define internal i32 @ir_edge_info_cmp(ptr noundef readonly captures(none) %0, ptr noundef readonly captures(none) %1) #12 {
  %3 = getelementptr inbounds nuw i8, ptr %0, i64 8
  %4 = load float, ptr %3, align 4, !tbaa !75
  %5 = getelementptr inbounds nuw i8, ptr %1, i64 8
  %6 = load float, ptr %5, align 4, !tbaa !75
  %7 = fcmp une float %4, %6
  br i1 %7, label %8, label %11

8:                                                ; preds = %2
  %9 = fcmp olt float %4, %6
  %10 = select i1 %9, i32 1, i32 -1
  br label %22

11:                                               ; preds = %2
  %12 = load i32, ptr %0, align 4, !tbaa !72
  %13 = load i32, ptr %1, align 4, !tbaa !72
  %.not = icmp eq i32 %12, %13
  br i1 %.not, label %16, label %14

14:                                               ; preds = %11
  %15 = sub i32 %13, %12
  br label %22

16:                                               ; preds = %11
  %17 = getelementptr inbounds nuw i8, ptr %0, i64 4
  %18 = load i32, ptr %17, align 4, !tbaa !74
  %19 = getelementptr inbounds nuw i8, ptr %1, i64 4
  %20 = load i32, ptr %19, align 4, !tbaa !74
  %21 = sub i32 %18, %20
  br label %22

22:                                               ; preds = %16, %14, %8
  %.0 = phi i32 [ %10, %8 ], [ %15, %14 ], [ %21, %16 ]
  ret i32 %.0
}